target datalayout = "e-m:e-p270:32:32-p271:32:32-p272:64:64-i64:64-i128:128-f80:128-n8:16:32:64-S128"
target triple = "x86_64-pc-linux-gnu"

%struct._zend_date_globals = type { ptr, ptr, ptr, ptr }
%struct._zval_struct = type { %union._zend_value, %union.anon.0, %union.anon.3 }
%union._zend_value = type { i64 }
%union.anon.0 = type { i32 }
%union.anon.3 = type { i32 }
%struct._zend_execute_data = type { ptr, ptr, ptr, ptr, %struct._zval_struct, ptr, ptr, ptr, ptr }

@date_globals = hidden global %struct._zend_date_globals zeroinitializer, align 8

; Function Attrs: nounwind uwtable
define hidden void @zif_date_get_last_errors(ptr noundef %0, ptr noundef %1) #0 {
  %3 = alloca ptr, align 8
  %4 = alloca ptr, align 8
  %5 = alloca ptr, align 8
  %6 = alloca ptr, align 8
  store ptr %0, ptr %3, align 8
  store ptr %1, ptr %4, align 8
  br label %7

7:                                                ; preds = %2
  %8 = load ptr, ptr %3, align 8
  %9 = getelementptr inbounds %struct._zend_execute_data, ptr %8, i32 0, i32 4
  %10 = getelementptr inbounds %struct._zval_struct, ptr %9, i32 0, i32 2
  %11 = load i32, ptr %10, align 4
  %12 = icmp ne i32 %11, 0
  %13 = xor i1 %12, true
  %14 = xor i1 %13, true
  %15 = zext i1 %14 to i32
  %16 = sext i32 %15 to i64
  %17 = icmp ne i64 %16, 0
  br i1 %17, label %18, label %19

18:                                               ; preds = %7
  call void @zend_wrong_parameters_none_error()
  br label %42

19:                                               ; preds = %7
  br label %20

20:                                               ; preds = %19
  %21 = load ptr, ptr getelementptr inbounds (%struct._zend_date_globals, ptr @date_globals, i32 0, i32 3), align 8
  %22 = icmp ne ptr %21, null
  br i1 %22, label %23, label %35

23:                                               ; preds = %20
  br label %24

24:                                               ; preds = %23
  %25 = call ptr @_zend_new_array_0()
  store ptr %25, ptr %5, align 8
  %26 = load ptr, ptr %4, align 8
  store ptr %26, ptr %6, align 8
  %27 = load ptr, ptr %5, align 8
  %28 = load ptr, ptr %6, align 8
  %29 = getelementptr inbounds %struct._zval_struct, ptr %28, i32 0, i32 0
  store ptr %27, ptr %29, align 8
  %30 = load ptr, ptr %6, align 8
  %31 = getelementptr inbounds %struct._zval_struct, ptr %30, i32 0, i32 1
  store i32 775, ptr %31, align 8
  br label %32

32:                                               ; preds = %24
  %33 = load ptr, ptr %4, align 8
  %34 = load ptr, ptr getelementptr inbounds (%struct._zend_date_globals, ptr @date_globals, i32 0, i32 3), align 8
  call void @zval_from_error_container(ptr noundef %33, ptr noundef %34)
  br label %42

35:                                               ; preds = %20
  br label %36

36:                                               ; preds = %35
  br label %37

37:                                               ; preds = %36
  %38 = load ptr, ptr %4, align 8
  %39 = getelementptr inbounds %struct._zval_struct, ptr %38, i32 0, i32 1
  store i32 2, ptr %39, align 8
  br label %40

40:                                               ; preds = %37
  br label %42

41:                                               ; No predecessors!
  br label %42

42:                                               ; preds = %41, %40, %32, %18
  ret void
}