; Function Attrs: nounwind uwtable
define hidden void @zif_date_get_last_errors(ptr nocapture noundef readonly %0, ptr noundef %1) #0 {
  %3 = getelementptr inbounds i8, ptr %0, i64 44
  %4 = load i32, ptr %3, align 4
  %.not = icmp eq i32 %4, 0
  br i1 %.not, label %6, label %5

5:                                                ; preds = %2
  tail call void @zend_wrong_parameters_none_error() #25
  br label %14

6:                                                ; preds = %2
  %7 = load ptr, ptr getelementptr inbounds (%struct._zend_date_globals, ptr @date_globals, i64 0, i32 3), align 8
  %.not7 = icmp eq ptr %7, null
  br i1 %.not7, label %12, label %8

8:                                                ; preds = %6
  %9 = tail call ptr @_zend_new_array_0() #25
  store ptr %9, ptr %1, align 8
  %10 = getelementptr inbounds i8, ptr %1, i64 8
  store i32 775, ptr %10, align 8
  %11 = load ptr, ptr getelementptr inbounds (%struct._zend_date_globals, ptr @date_globals, i64 0, i32 3), align 8
  tail call fastcc void @zval_from_error_container(ptr noundef nonnull %1, ptr noundef %11)
  br label %14

12:                                               ; preds = %6
  %13 = getelementptr inbounds i8, ptr %1, i64 8
  store i32 2, ptr %13, align 8
  br label %14

14:                                               ; preds = %12, %8, %5
  ret void
}